; Function Attrs: mustprogress uwtable
define hidden void @_ZN4lean10opaque_valC2ERKNS_4nameERKNS_8list_refIS1_EERKNS_4exprESA_bS7_(ptr noundef nonnull writeonly align 8 captures(none) dereferenceable(8) initializes((0, 8)) %0, ptr noundef nonnull readonly align 8 captures(none) dereferenceable(8) %1, ptr noundef nonnull readonly align 8 captures(none) dereferenceable(8) %2, ptr noundef nonnull readonly align 8 captures(none) dereferenceable(8) %3, ptr noundef nonnull readonly align 8 captures(none) dereferenceable(8) %4, i1 noundef zeroext %5, ptr noundef nonnull readonly align 8 captures(none) dereferenceable(8) %6) unnamed_addr #0 align 2 {
  %8 = load ptr, ptr %1, align 8, !tbaa !3
  %9 = ptrtoint ptr %8 to i64
  %10 = and i64 %9, 1
  %.not.i.i = icmp eq i64 %10, 0
  br i1 %.not.i.i, label %11, label %_ZNK4lean10object_ref10to_obj_argEv.exit

11:                                               ; preds = %7
  %.val.i.i.i = load i32, ptr %8, align 4, !tbaa !8
  %12 = icmp sgt i32 %.val.i.i.i, 0
  br i1 %12, label %13, label %15, !prof !11

13:                                               ; preds = %11
  %14 = add nuw nsw i32 %.val.i.i.i, 1
  store i32 %14, ptr %8, align 4, !tbaa !8
  br label %_ZNK4lean10object_ref10to_obj_argEv.exit

15:                                               ; preds = %11
  %.not.i.i.i = icmp eq i32 %.val.i.i.i, 0
  br i1 %.not.i.i.i, label %_ZNK4lean10object_ref10to_obj_argEv.exit, label %16

16:                                               ; preds = %15
  tail call void @lean_inc_ref_cold(ptr noundef nonnull %8)
  %.pre.i = load ptr, ptr %1, align 8, !tbaa !3
  br label %_ZNK4lean10object_ref10to_obj_argEv.exit

_ZNK4lean10object_ref10to_obj_argEv.exit:         ; preds = %7, %13, %15, %16
  %17 = phi ptr [ %8, %7 ], [ %8, %13 ], [ %8, %15 ], [ %.pre.i, %16 ]
  %18 = load ptr, ptr %2, align 8, !tbaa !3
  %19 = ptrtoint ptr %18 to i64
  %20 = and i64 %19, 1
  %.not.i.i6 = icmp eq i64 %20, 0
  br i1 %.not.i.i6, label %21, label %_ZNK4lean10object_ref10to_obj_argEv.exit10

21:                                               ; preds = %_ZNK4lean10object_ref10to_obj_argEv.exit
  %.val.i.i.i7 = load i32, ptr %18, align 4, !tbaa !8
  %22 = icmp sgt i32 %.val.i.i.i7, 0
  br i1 %22, label %23, label %25, !prof !11

23:                                               ; preds = %21
  %24 = add nuw nsw i32 %.val.i.i.i7, 1
  store i32 %24, ptr %18, align 4, !tbaa !8
  br label %_ZNK4lean10object_ref10to_obj_argEv.exit10

25:                                               ; preds = %21
  %.not.i.i.i8 = icmp eq i32 %.val.i.i.i7, 0
  br i1 %.not.i.i.i8, label %_ZNK4lean10object_ref10to_obj_argEv.exit10, label %26

26:                                               ; preds = %25
  tail call void @lean_inc_ref_cold(ptr noundef nonnull %18)
  %.pre.i9 = load ptr, ptr %2, align 8, !tbaa !3
  br label %_ZNK4lean10object_ref10to_obj_argEv.exit10

_ZNK4lean10object_ref10to_obj_argEv.exit10:       ; preds = %_ZNK4lean10object_ref10to_obj_argEv.exit, %23, %25, %26
  %27 = phi ptr [ %18, %_ZNK4lean10object_ref10to_obj_argEv.exit ], [ %18, %23 ], [ %18, %25 ], [ %.pre.i9, %26 ]
  %28 = load ptr, ptr %3, align 8, !tbaa !3
  %29 = ptrtoint ptr %28 to i64
  %30 = and i64 %29, 1
  %.not.i.i11 = icmp eq i64 %30, 0
  br i1 %.not.i.i11, label %31, label %_ZNK4lean10object_ref10to_obj_argEv.exit15

31:                                               ; preds = %_ZNK4lean10object_ref10to_obj_argEv.exit10
  %.val.i.i.i12 = load i32, ptr %28, align 4, !tbaa !8
  %32 = icmp sgt i32 %.val.i.i.i12, 0
  br i1 %32, label %33, label %35, !prof !11

33:                                               ; preds = %31
  %34 = add nuw nsw i32 %.val.i.i.i12, 1
  store i32 %34, ptr %28, align 4, !tbaa !8
  br label %_ZNK4lean10object_ref10to_obj_argEv.exit15

35:                                               ; preds = %31
  %.not.i.i.i13 = icmp eq i32 %.val.i.i.i12, 0
  br i1 %.not.i.i.i13, label %_ZNK4lean10object_ref10to_obj_argEv.exit15, label %36

36:                                               ; preds = %35
  tail call void @lean_inc_ref_cold(ptr noundef nonnull %28)
  %.pre.i14 = load ptr, ptr %3, align 8, !tbaa !3
  br label %_ZNK4lean10object_ref10to_obj_argEv.exit15

_ZNK4lean10object_ref10to_obj_argEv.exit15:       ; preds = %_ZNK4lean10object_ref10to_obj_argEv.exit10, %33, %35, %36
  %37 = phi ptr [ %28, %_ZNK4lean10object_ref10to_obj_argEv.exit10 ], [ %28, %33 ], [ %28, %35 ], [ %.pre.i14, %36 ]
  %38 = load ptr, ptr %4, align 8, !tbaa !3
  %39 = ptrtoint ptr %38 to i64
  %40 = and i64 %39, 1
  %.not.i.i16 = icmp eq i64 %40, 0
  br i1 %.not.i.i16, label %41, label %_ZNK4lean10object_ref10to_obj_argEv.exit20

41:                                               ; preds = %_ZNK4lean10object_ref10to_obj_argEv.exit15
  %.val.i.i.i17 = load i32, ptr %38, align 4, !tbaa !8
  %42 = icmp sgt i32 %.val.i.i.i17, 0
  br i1 %42, label %43, label %45, !prof !11

43:                                               ; preds = %41
  %44 = add nuw nsw i32 %.val.i.i.i17, 1
  store i32 %44, ptr %38, align 4, !tbaa !8
  br label %_ZNK4lean10object_ref10to_obj_argEv.exit20

45:                                               ; preds = %41
  %.not.i.i.i18 = icmp eq i32 %.val.i.i.i17, 0
  br i1 %.not.i.i.i18, label %_ZNK4lean10object_ref10to_obj_argEv.exit20, label %46

46:                                               ; preds = %45
  tail call void @lean_inc_ref_cold(ptr noundef nonnull %38)
  %.pre.i19 = load ptr, ptr %4, align 8, !tbaa !3
  br label %_ZNK4lean10object_ref10to_obj_argEv.exit20

_ZNK4lean10object_ref10to_obj_argEv.exit20:       ; preds = %_ZNK4lean10object_ref10to_obj_argEv.exit15, %43, %45, %46
  %47 = phi ptr [ %38, %_ZNK4lean10object_ref10to_obj_argEv.exit15 ], [ %38, %43 ], [ %38, %45 ], [ %.pre.i19, %46 ]
  %48 = load ptr, ptr %6, align 8, !tbaa !3
  %49 = ptrtoint ptr %48 to i64
  %50 = and i64 %49, 1
  %.not.i.i21 = icmp eq i64 %50, 0
  br i1 %.not.i.i21, label %51, label %_ZNK4lean10object_ref10to_obj_argEv.exit25

51:                                               ; preds = %_ZNK4lean10object_ref10to_obj_argEv.exit20
  %.val.i.i.i22 = load i32, ptr %48, align 4, !tbaa !8
  %52 = icmp sgt i32 %.val.i.i.i22, 0
  br i1 %52, label %53, label %55, !prof !11

53:                                               ; preds = %51
  %54 = add nuw nsw i32 %.val.i.i.i22, 1
  store i32 %54, ptr %48, align 4, !tbaa !8
  br label %_ZNK4lean10object_ref10to_obj_argEv.exit25

55:                                               ; preds = %51
  %.not.i.i.i23 = icmp eq i32 %.val.i.i.i22, 0
  br i1 %.not.i.i.i23, label %_ZNK4lean10object_ref10to_obj_argEv.exit25, label %56

56:                                               ; preds = %55
  tail call void @lean_inc_ref_cold(ptr noundef nonnull %48)
  %.pre.i24 = load ptr, ptr %6, align 8, !tbaa !3
  br label %_ZNK4lean10object_ref10to_obj_argEv.exit25

_ZNK4lean10object_ref10to_obj_argEv.exit25:       ; preds = %_ZNK4lean10object_ref10to_obj_argEv.exit20, %53, %55, %56
  %57 = phi ptr [ %48, %_ZNK4lean10object_ref10to_obj_argEv.exit20 ], [ %48, %53 ], [ %48, %55 ], [ %.pre.i24, %56 ]
  %58 = zext i1 %5 to i8
  %59 = tail call ptr @lean_mk_opaque_val(ptr noundef %17, ptr noundef %27, ptr noundef %37, ptr noundef %47, i8 noundef zeroext %58, ptr noundef %57)
  store ptr %59, ptr %0, align 8, !tbaa !3
  ret void
}